target datalayout = "e-m:e-p270:32:32-p271:32:32-p272:64:64-i64:64-i128:128-f80:128-n8:16:32:64-S128"
target triple = "x86_64-pc-linux-gnu"

%struct.lua_TValue = type { %union.Value, [1 x i32], i32 }
%union.Value = type { ptr }
%struct.TKey = type { %union.Value, [1 x i32], i32 }

; Function Attrs: inlinehint mustprogress nounwind uwtable
define linkonce_odr dso_local noundef zeroext i1 @_Z10luai_veceqPKfS0_(ptr noundef %0, ptr noundef %1) #3 comdat {
  %3 = alloca ptr, align 8
  %4 = alloca ptr, align 8
  store ptr %0, ptr %3, align 8, !tbaa !16
  store ptr %1, ptr %4, align 8, !tbaa !16
  %5 = load ptr, ptr %3, align 8, !tbaa !16
  %6 = getelementptr inbounds float, ptr %5, i64 0
  %7 = load float, ptr %6, align 4, !tbaa !18
  %8 = load ptr, ptr %4, align 8, !tbaa !16
  %9 = getelementptr inbounds float, ptr %8, i64 0
  %10 = load float, ptr %9, align 4, !tbaa !18
  %11 = fcmp oeq float %7, %10
  br i1 %11, label %12, label %28

12:                                               ; preds = %2
  %13 = load ptr, ptr %3, align 8, !tbaa !16
  %14 = getelementptr inbounds float, ptr %13, i64 1
  %15 = load float, ptr %14, align 4, !tbaa !18
  %16 = load ptr, ptr %4, align 8, !tbaa !16
  %17 = getelementptr inbounds float, ptr %16, i64 1
  %18 = load float, ptr %17, align 4, !tbaa !18
  %19 = fcmp oeq float %15, %18
  br i1 %19, label %20, label %28

20:                                               ; preds = %12
  %21 = load ptr, ptr %3, align 8, !tbaa !16
  %22 = getelementptr inbounds float, ptr %21, i64 2
  %23 = load float, ptr %22, align 4, !tbaa !18
  %24 = load ptr, ptr %4, align 8, !tbaa !16
  %25 = getelementptr inbounds float, ptr %24, i64 2
  %26 = load float, ptr %25, align 4, !tbaa !18
  %27 = fcmp oeq float %23, %26
  br label %28

28:                                               ; preds = %20, %12, %2
  %29 = phi i1 [ false, %12 ], [ false, %2 ], [ %27, %20 ]
  ret i1 %29
}

; Function Attrs: mustprogress uwtable
define hidden noundef i32 @_Z16luaO_rawequalKeyPK4TKeyPK10lua_TValue(ptr noundef %0, ptr noundef %1) #2 {
  %3 = alloca i32, align 4
  %4 = alloca ptr, align 8
  %5 = alloca ptr, align 8
  store ptr %0, ptr %4, align 8, !tbaa !20
  store ptr %1, ptr %5, align 8, !tbaa !11
  %6 = load ptr, ptr %4, align 8, !tbaa !20
  %7 = getelementptr inbounds nuw %struct.TKey, ptr %6, i32 0, i32 2
  %8 = load i32, ptr %7, align 4
  %9 = and i32 %8, 15
  %10 = load ptr, ptr %5, align 8, !tbaa !11
  %11 = getelementptr inbounds nuw %struct.lua_TValue, ptr %10, i32 0, i32 2
  %12 = load i32, ptr %11, align 4, !tbaa !14
  %13 = icmp ne i32 %9, %12
  br i1 %13, label %14, label %15

14:                                               ; preds = %2
  store i32 0, ptr %3, align 4
  br label %78

15:                                               ; preds = %2
  %16 = load ptr, ptr %4, align 8, !tbaa !20
  %17 = getelementptr inbounds nuw %struct.TKey, ptr %16, i32 0, i32 2
  %18 = load i32, ptr %17, align 4
  %19 = and i32 %18, 15
  switch i32 %19, label %69 [
    i32 0, label %20
    i32 3, label %21
    i32 4, label %30
    i32 1, label %39
    i32 2, label %48
  ]

20:                                               ; preds = %15
  store i32 1, ptr %3, align 4
  br label %78

21:                                               ; preds = %15
  %22 = load ptr, ptr %4, align 8, !tbaa !20
  %23 = getelementptr inbounds nuw %struct.TKey, ptr %22, i32 0, i32 0
  %24 = load double, ptr %23, align 8, !tbaa !10
  %25 = load ptr, ptr %5, align 8, !tbaa !11
  %26 = getelementptr inbounds nuw %struct.lua_TValue, ptr %25, i32 0, i32 0
  %27 = load double, ptr %26, align 8, !tbaa !10
  %28 = fcmp oeq double %24, %27
  %29 = zext i1 %28 to i32
  store i32 %29, ptr %3, align 4
  br label %78

30:                                               ; preds = %15
  %31 = load ptr, ptr %4, align 8, !tbaa !20
  %32 = getelementptr inbounds nuw %struct.TKey, ptr %31, i32 0, i32 0
  %33 = getelementptr inbounds [2 x float], ptr %32, i64 0, i64 0
  %34 = load ptr, ptr %5, align 8, !tbaa !11
  %35 = getelementptr inbounds nuw %struct.lua_TValue, ptr %34, i32 0, i32 0
  %36 = getelementptr inbounds [2 x float], ptr %35, i64 0, i64 0
  %37 = call noundef zeroext i1 @_Z10luai_veceqPKfS0_(ptr noundef %33, ptr noundef %36)
  %38 = zext i1 %37 to i32
  store i32 %38, ptr %3, align 4
  br label %78

39:                                               ; preds = %15
  %40 = load ptr, ptr %4, align 8, !tbaa !20
  %41 = getelementptr inbounds nuw %struct.TKey, ptr %40, i32 0, i32 0
  %42 = load i32, ptr %41, align 8, !tbaa !10
  %43 = load ptr, ptr %5, align 8, !tbaa !11
  %44 = getelementptr inbounds nuw %struct.lua_TValue, ptr %43, i32 0, i32 0
  %45 = load i32, ptr %44, align 8, !tbaa !10
  %46 = icmp eq i32 %42, %45
  %47 = zext i1 %46 to i32
  store i32 %47, ptr %3, align 4
  br label %78

48:                                               ; preds = %15
  %49 = load ptr, ptr %4, align 8, !tbaa !20
  %50 = getelementptr inbounds nuw %struct.TKey, ptr %49, i32 0, i32 0
  %51 = load ptr, ptr %50, align 8, !tbaa !10
  %52 = load ptr, ptr %5, align 8, !tbaa !11
  %53 = getelementptr inbounds nuw %struct.lua_TValue, ptr %52, i32 0, i32 0
  %54 = load ptr, ptr %53, align 8, !tbaa !10
  %55 = icmp eq ptr %51, %54
  br i1 %55, label %56, label %66

56:                                               ; preds = %48
  %57 = load ptr, ptr %4, align 8, !tbaa !20
  %58 = getelementptr inbounds nuw %struct.TKey, ptr %57, i32 0, i32 1
  %59 = getelementptr inbounds [1 x i32], ptr %58, i64 0, i64 0
  %60 = load i32, ptr %59, align 8, !tbaa !4
  %61 = load ptr, ptr %5, align 8, !tbaa !11
  %62 = getelementptr inbounds nuw %struct.lua_TValue, ptr %61, i32 0, i32 1
  %63 = getelementptr inbounds [1 x i32], ptr %62, i64 0, i64 0
  %64 = load i32, ptr %63, align 8, !tbaa !4
  %65 = icmp eq i32 %60, %64
  br label %66

66:                                               ; preds = %56, %48
  %67 = phi i1 [ false, %48 ], [ %65, %56 ]
  %68 = zext i1 %67 to i32
  store i32 %68, ptr %3, align 4
  br label %78

69:                                               ; preds = %15
  %70 = load ptr, ptr %4, align 8, !tbaa !20
  %71 = getelementptr inbounds nuw %struct.TKey, ptr %70, i32 0, i32 0
  %72 = load ptr, ptr %71, align 8, !tbaa !10
  %73 = load ptr, ptr %5, align 8, !tbaa !11
  %74 = getelementptr inbounds nuw %struct.lua_TValue, ptr %73, i32 0, i32 0
  %75 = load ptr, ptr %74, align 8, !tbaa !10
  %76 = icmp eq ptr %72, %75
  %77 = zext i1 %76 to i32
  store i32 %77, ptr %3, align 4
  br label %78

78:                                               ; preds = %69, %66, %39, %30, %21, %20, %14
  %79 = load i32, ptr %3, align 4
  ret i32 %79
}