; Function Attrs: mustprogress nofree norecurse nosync nounwind willreturn memory(argmem: read) uwtable
define hidden noundef range(i32 0, 2) i32 @_Z16luaO_rawequalKeyPK4TKeyPK10lua_TValue(ptr noundef readonly captures(none) %0, ptr noundef readonly captures(none) %1) local_unnamed_addr #2 {
  %3 = getelementptr inbounds nuw i8, ptr %0, i64 12
  %4 = load i32, ptr %3, align 4
  %5 = and i32 %4, 15
  %6 = getelementptr inbounds nuw i8, ptr %1, i64 12
  %7 = load i32, ptr %6, align 4, !tbaa !9
  %.not = icmp eq i32 %5, %7
  br i1 %.not, label %8, label %_Z10luai_veceqPKfS0_.exit

8:                                                ; preds = %2
  switch i32 %5, label %43 [
    i32 0, label %_Z10luai_veceqPKfS0_.exit
    i32 3, label %9
    i32 4, label %13
    i32 1, label %29
    i32 2, label %33
  ]

9:                                                ; preds = %8
  %10 = load double, ptr %0, align 8, !tbaa !6
  %11 = load double, ptr %1, align 8, !tbaa !6
  %12 = fcmp oeq double %10, %11
  br label %_Z10luai_veceqPKfS0_.exit

13:                                               ; preds = %8
  %14 = load float, ptr %0, align 4, !tbaa !12
  %15 = load float, ptr %1, align 4, !tbaa !12
  %16 = fcmp oeq float %14, %15
  br i1 %16, label %17, label %_Z10luai_veceqPKfS0_.exit

17:                                               ; preds = %13
  %18 = getelementptr inbounds nuw i8, ptr %0, i64 4
  %19 = load float, ptr %18, align 4, !tbaa !12
  %20 = getelementptr inbounds nuw i8, ptr %1, i64 4
  %21 = load float, ptr %20, align 4, !tbaa !12
  %22 = fcmp oeq float %19, %21
  br i1 %22, label %23, label %_Z10luai_veceqPKfS0_.exit

23:                                               ; preds = %17
  %24 = getelementptr inbounds nuw i8, ptr %0, i64 8
  %25 = load float, ptr %24, align 4, !tbaa !12
  %26 = getelementptr inbounds nuw i8, ptr %1, i64 8
  %27 = load float, ptr %26, align 4, !tbaa !12
  %28 = fcmp oeq float %25, %27
  br label %_Z10luai_veceqPKfS0_.exit

29:                                               ; preds = %8
  %30 = load i32, ptr %0, align 8, !tbaa !6
  %31 = load i32, ptr %1, align 8, !tbaa !6
  %32 = icmp eq i32 %30, %31
  br label %_Z10luai_veceqPKfS0_.exit

33:                                               ; preds = %8
  %34 = load ptr, ptr %0, align 8, !tbaa !6
  %35 = load ptr, ptr %1, align 8, !tbaa !6
  %36 = icmp eq ptr %34, %35
  br i1 %36, label %37, label %_Z10luai_veceqPKfS0_.exit

37:                                               ; preds = %33
  %38 = getelementptr inbounds nuw i8, ptr %0, i64 8
  %39 = load i32, ptr %38, align 8, !tbaa !14
  %40 = getelementptr inbounds nuw i8, ptr %1, i64 8
  %41 = load i32, ptr %40, align 8, !tbaa !14
  %42 = icmp eq i32 %39, %41
  br label %_Z10luai_veceqPKfS0_.exit

43:                                               ; preds = %8
  %44 = load ptr, ptr %0, align 8, !tbaa !6
  %45 = load ptr, ptr %1, align 8, !tbaa !6
  %46 = icmp eq ptr %44, %45
  br label %_Z10luai_veceqPKfS0_.exit

_Z10luai_veceqPKfS0_.exit:                        ; preds = %23, %17, %13, %33, %37, %8, %2, %43, %29, %9
  %.0.shrunk = phi i1 [ %46, %43 ], [ %32, %29 ], [ %12, %9 ], [ false, %2 ], [ true, %8 ], [ false, %33 ], [ %42, %37 ], [ false, %17 ], [ false, %13 ], [ %28, %23 ]
  %.0 = zext i1 %.0.shrunk to i32
  ret i32 %.0
}